target datalayout = "e-m:e-p270:32:32-p271:32:32-p272:64:64-i64:64-i128:128-f80:128-n8:16:32:64-S128"
target triple = "x86_64-unknown-linux-gnu"

%struct.MigrationIncomingState = type { ptr, [2 x ptr], ptr, ptr, %struct.QemuSemaphore, %struct.QemuEvent, %struct.AnnounceTimer, i64, i8, %struct.QemuThread, i8, i8, %struct.QemuThread, i32, i32, ptr, %struct.QemuMutex, ptr, i32, ptr, %struct.QemuSemaphore, %struct.QemuThread, i32, %struct.QemuMutex, ptr, ptr, ptr, ptr, i32, ptr, ptr, %struct.QemuSemaphore, ptr, %struct.QemuSemaphore, %struct.QemuSemaphore, %struct.QemuSemaphore, ptr, ptr, i32, %struct.QemuMutex, %struct.QemuCond, i32 }
%struct.QemuEvent = type { i32, i8 }
%struct.AnnounceTimer = type { ptr, %struct.AnnounceParameters, i32, i32 }
%struct.AnnounceParameters = type { i64, i64, i64, i64, i8, ptr, ptr }
%struct.QemuThread = type { i64 }
%struct.QemuSemaphore = type { %struct.QemuMutex, %struct.QemuCond, i32 }
%struct.QemuMutex = type { %union.pthread_mutex_t, i8 }
%union.pthread_mutex_t = type { %struct.__pthread_mutex_s }
%struct.__pthread_mutex_s = type { i32, i32, i32, i32, i32, i16, i16, %struct.__pthread_internal_list }
%struct.__pthread_internal_list = type { ptr, ptr }
%struct.QemuCond = type { %union.pthread_cond_t, i8 }
%union.pthread_cond_t = type { %struct.__pthread_cond_s }
%struct.__pthread_cond_s = type { %union.__atomic_wide_counter, %union.__atomic_wide_counter, [2 x i32], [2 x i32], i32, i32, [2 x i32] }
%union.__atomic_wide_counter = type { i64 }

@.str.2 = private unnamed_addr constant [30 x i8] c"../qemu/migration/migration.c\00", align 1
@.str.7 = private unnamed_addr constant [17 x i8] c"rbname_len < 256\00", align 1
@__PRETTY_FUNCTION__.migrate_send_rp_message_req_pages = private unnamed_addr constant [88 x i8] c"int migrate_send_rp_message_req_pages(MigrationIncomingState *, RAMBlock *, ram_addr_t)\00", align 1

; Function Attrs: nounwind sspstrong uwtable
define internal i32 @cpu_to_be32(i32 noundef %v) #0 {
entry:
  %v.addr = alloca i32, align 4
  store i32 %v, ptr %v.addr, align 4
  %0 = load i32, ptr %v.addr, align 4
  %1 = call i32 @llvm.bswap.i32(i32 %0)
  ret i32 %1
}

; Function Attrs: nounwind sspstrong uwtable
define internal i64 @cpu_to_be64(i64 noundef %v) #0 {
entry:
  %v.addr = alloca i64, align 8
  store i64 %v, ptr %v.addr, align 8
  %0 = load i64, ptr %v.addr, align 8
  %1 = call i64 @llvm.bswap.i64(i64 %0)
  ret i64 %1
}

; Function Attrs: nounwind sspstrong uwtable
define dso_local i32 @migrate_send_rp_message_req_pages(ptr noundef %mis, ptr noundef %rb, i64 noundef %start) #0 {
entry:
  %mis.addr = alloca ptr, align 8
  %rb.addr = alloca ptr, align 8
  %start.addr = alloca i64, align 8
  %bufc = alloca [268 x i8], align 16
  %msglen = alloca i64, align 8
  %len = alloca i64, align 8
  %msg_type = alloca i32, align 4
  %rbname = alloca ptr, align 8
  %rbname_len = alloca i32, align 4
  store ptr %mis, ptr %mis.addr, align 8
  store ptr %rb, ptr %rb.addr, align 8
  store i64 %start, ptr %start.addr, align 8
  store i64 12, ptr %msglen, align 8
  %0 = load ptr, ptr %rb.addr, align 8
  %call = call i64 @qemu_ram_pagesize(ptr noundef %0)
  store i64 %call, ptr %len, align 8
  %1 = load i64, ptr %start.addr, align 8
  %call1 = call i64 @cpu_to_be64(i64 noundef %1)
  %arraydecay = getelementptr inbounds [268 x i8], ptr %bufc, i64 0, i64 0
  store i64 %call1, ptr %arraydecay, align 16
  %2 = load i64, ptr %len, align 8
  %conv = trunc i64 %2 to i32
  %call2 = call i32 @cpu_to_be32(i32 noundef %conv)
  %arraydecay3 = getelementptr inbounds [268 x i8], ptr %bufc, i64 0, i64 0
  %add.ptr = getelementptr i8, ptr %arraydecay3, i64 8
  store i32 %call2, ptr %add.ptr, align 4
  %3 = load ptr, ptr %rb.addr, align 8
  %4 = load ptr, ptr %mis.addr, align 8
  %last_rb = getelementptr inbounds %struct.MigrationIncomingState, ptr %4, i32 0, i32 17
  %5 = load ptr, ptr %last_rb, align 8
  %cmp = icmp ne ptr %3, %5
  br i1 %cmp, label %if.then, label %if.else17

if.then:                                          ; preds = %entry
  %6 = load ptr, ptr %rb.addr, align 8
  %7 = load ptr, ptr %mis.addr, align 8
  %last_rb5 = getelementptr inbounds %struct.MigrationIncomingState, ptr %7, i32 0, i32 17
  store ptr %6, ptr %last_rb5, align 8
  %8 = load ptr, ptr %rb.addr, align 8
  %call6 = call ptr @qemu_ram_get_idstr(ptr noundef %8)
  store ptr %call6, ptr %rbname, align 8
  %9 = load ptr, ptr %rbname, align 8
  %call7 = call i64 @strlen(ptr noundef %9) #15
  %conv8 = trunc i64 %call7 to i32
  store i32 %conv8, ptr %rbname_len, align 4
  %10 = load i32, ptr %rbname_len, align 4
  %cmp9 = icmp slt i32 %10, 256
  br i1 %cmp9, label %if.then11, label %if.else

if.then11:                                        ; preds = %if.then
  br label %if.end

if.else:                                          ; preds = %if.then
  call void @__assert_fail(ptr noundef @.str.7, ptr noundef @.str.2, i32 noundef 374, ptr noundef @__PRETTY_FUNCTION__.migrate_send_rp_message_req_pages) #13
  unreachable

if.end:                                           ; preds = %if.then11
  %11 = load i32, ptr %rbname_len, align 4
  %conv12 = trunc i32 %11 to i8
  %12 = load i64, ptr %msglen, align 8
  %inc = add i64 %12, 1
  store i64 %inc, ptr %msglen, align 8
  %arrayidx = getelementptr [268 x i8], ptr %bufc, i64 0, i64 %12
  store i8 %conv12, ptr %arrayidx, align 1
  %arraydecay13 = getelementptr inbounds [268 x i8], ptr %bufc, i64 0, i64 0
  %13 = load i64, ptr %msglen, align 8
  %add.ptr14 = getelementptr i8, ptr %arraydecay13, i64 %13
  %14 = load ptr, ptr %rbname, align 8
  %15 = load i32, ptr %rbname_len, align 4
  %conv15 = sext i32 %15 to i64
  call void @llvm.memcpy.p0.p0.i64(ptr align 1 %add.ptr14, ptr align 1 %14, i64 %conv15, i1 false)
  %16 = load i32, ptr %rbname_len, align 4
  %conv16 = sext i32 %16 to i64
  %17 = load i64, ptr %msglen, align 8
  %add = add i64 %17, %conv16
  store i64 %add, ptr %msglen, align 8
  store i32 3, ptr %msg_type, align 4
  br label %if.end18

if.else17:                                        ; preds = %entry
  store i32 4, ptr %msg_type, align 4
  br label %if.end18

if.end18:                                         ; preds = %if.else17, %if.end
  %18 = load ptr, ptr %mis.addr, align 8
  %19 = load i32, ptr %msg_type, align 4
  %20 = load i64, ptr %msglen, align 8
  %conv19 = trunc i64 %20 to i16
  %arraydecay20 = getelementptr inbounds [268 x i8], ptr %bufc, i64 0, i64 0
  %call21 = call i32 @migrate_send_rp_message(ptr noundef %18, i32 noundef %19, i16 noundef zeroext %conv19, ptr noundef %arraydecay20)
  ret i32 %call21
}