; Function Attrs: nounwind sspstrong uwtable
define dso_local i32 @migrate_send_rp_message_req_pages(ptr noundef %mis, ptr noundef %rb, i64 noundef %start) local_unnamed_addr #0 {
entry:
  %bufc = alloca [268 x i8], align 16
  %call = tail call i64 @qemu_ram_pagesize(ptr noundef %rb) #19
  %0 = tail call noundef i64 @llvm.bswap.i64(i64 %start)
  store i64 %0, ptr %bufc, align 16
  %conv = trunc i64 %call to i32
  %1 = tail call noundef i32 @llvm.bswap.i32(i32 %conv)
  %add.ptr = getelementptr inbounds nuw i8, ptr %bufc, i64 8
  store i32 %1, ptr %add.ptr, align 8
  %last_rb = getelementptr inbounds nuw i8, ptr %mis, i64 336
  %2 = load ptr, ptr %last_rb, align 8
  %cmp.not = icmp eq ptr %rb, %2
  br i1 %cmp.not, label %if.end18, label %if.then

if.then:                                          ; preds = %entry
  store ptr %rb, ptr %last_rb, align 8
  %call6 = tail call ptr @qemu_ram_get_idstr(ptr noundef %rb) #19
  %call7 = tail call i64 @strlen(ptr noundef nonnull dereferenceable(1) %call6) #22
  %conv8 = trunc i64 %call7 to i32
  %cmp9 = icmp slt i32 %conv8, 256
  br i1 %cmp9, label %if.end, label %if.else

if.else:                                          ; preds = %if.then
  tail call void @__assert_fail(ptr noundef nonnull @.str.7, ptr noundef nonnull @.str.2, i32 noundef 374, ptr noundef nonnull @__PRETTY_FUNCTION__.migrate_send_rp_message_req_pages) #20
  unreachable

if.end:                                           ; preds = %if.then
  %conv12 = trunc i64 %call7 to i8
  %arrayidx = getelementptr inbounds nuw i8, ptr %bufc, i64 12
  store i8 %conv12, ptr %arrayidx, align 4
  %add.ptr14 = getelementptr inbounds nuw i8, ptr %bufc, i64 13
  %sext = shl i64 %call7, 32
  %conv15 = ashr exact i64 %sext, 32
  call void @llvm.memcpy.p0.p0.i64(ptr nonnull align 1 %add.ptr14, ptr nonnull align 1 %call6, i64 %conv15, i1 false)
  %3 = trunc i64 %call7 to i16
  %4 = add i16 %3, 13
  br label %if.end18

if.end18:                                         ; preds = %entry, %if.end
  %msg_type.0 = phi i32 [ 3, %if.end ], [ 4, %entry ]
  %msglen.0 = phi i16 [ %4, %if.end ], [ 12, %entry ]
  %call21 = call fastcc i32 @migrate_send_rp_message(ptr noundef nonnull %mis, i32 noundef %msg_type.0, i16 noundef zeroext %msglen.0, ptr noundef nonnull %bufc)
  ret i32 %call21
}